; Function Attrs: nounwind uwtable
define hidden ptr @X509at_add1_attr_by_NID(ptr noundef captures(address_is_null) %0, i32 noundef %1, i32 noundef %2, ptr noundef %3, i32 noundef %4) local_unnamed_addr #0 {
  %6 = tail call ptr @OBJ_nid2obj(i32 noundef %1) #4
  %7 = icmp eq ptr %6, null
  br i1 %7, label %8, label %9

8:                                                ; preds = %5
  tail call void @ERR_put_error(i32 noundef 11, i32 noundef 0, i32 noundef 129, ptr noundef nonnull @.str, i32 noundef 224) #4
  br label %X509_ATTRIBUTE_create_by_NID.exit.thread

9:                                                ; preds = %5
  %10 = tail call ptr @X509_ATTRIBUTE_new() #4
  %11 = icmp eq ptr %10, null
  br i1 %11, label %12, label %X509_ATTRIBUTE_set1_object.exit.i

12:                                               ; preds = %9
  tail call void @ERR_put_error(i32 noundef 11, i32 noundef 0, i32 noundef 65, ptr noundef nonnull @.str, i32 noundef 239) #4
  br label %X509_ATTRIBUTE_create_by_NID.exit.thread

X509_ATTRIBUTE_set1_object.exit.i:                ; preds = %9
  %13 = load ptr, ptr %10, align 8, !tbaa !6
  tail call void @ASN1_OBJECT_free(ptr noundef %13) #4
  %14 = tail call ptr @OBJ_dup(ptr noundef nonnull %6) #4
  store ptr %14, ptr %10, align 8, !tbaa !6
  %.not27.i = icmp eq ptr %14, null
  br i1 %.not27.i, label %X509_ATTRIBUTE_set1_object.exit.thread.i, label %15

15:                                               ; preds = %X509_ATTRIBUTE_set1_object.exit.i
  %16 = tail call i32 @X509_ATTRIBUTE_set1_data(ptr noundef nonnull %10, i32 noundef %2, ptr noundef %3, i32 noundef %4)
  %.not22.i = icmp eq i32 %16, 0
  br i1 %.not22.i, label %X509_ATTRIBUTE_set1_object.exit.thread.i, label %X509_ATTRIBUTE_create_by_NID.exit

X509_ATTRIBUTE_set1_object.exit.thread.i:         ; preds = %15, %X509_ATTRIBUTE_set1_object.exit.i
  tail call void @X509_ATTRIBUTE_free(ptr noundef nonnull %10) #4
  br label %X509_ATTRIBUTE_create_by_NID.exit.thread

X509_ATTRIBUTE_create_by_NID.exit:                ; preds = %15
  %17 = tail call ptr @X509at_add1_attr(ptr noundef %0, ptr noundef nonnull %10)
  tail call void @X509_ATTRIBUTE_free(ptr noundef nonnull %10) #4
  br label %X509_ATTRIBUTE_create_by_NID.exit.thread

X509_ATTRIBUTE_create_by_NID.exit.thread:         ; preds = %X509_ATTRIBUTE_set1_object.exit.thread.i, %12, %8, %X509_ATTRIBUTE_create_by_NID.exit
  %.0 = phi ptr [ %17, %X509_ATTRIBUTE_create_by_NID.exit ], [ null, %8 ], [ null, %12 ], [ null, %X509_ATTRIBUTE_set1_object.exit.thread.i ]
  ret ptr %.0
}